; Function Attrs: mustprogress uwtable
define hidden noundef i32 @_ZN19OpenColorIO_v2_4dev11GammaOpData12ConvertStyleENS0_5StyleE(i32 noundef %style) local_unnamed_addr #3 align 2 personality ptr @__gxx_personality_v0 {
entry:
  %ss = alloca %"class.std::__cxx11::basic_stringstream", align 8
  %ref.tmp = alloca %"class.std::__cxx11::basic_string", align 8
  %ref.tmp4 = alloca %"class.std::allocator", align 1
  %ref.tmp11 = alloca %"class.std::__cxx11::basic_string", align 8
  %0 = icmp ult i32 %style, 10
  br i1 %0, label %switch.lookup, label %sw.epilog

sw.epilog:                                        ; preds = %entry
  call void @_ZNSaIcEC1Ev(ptr noundef nonnull align 1 dereferenceable(1) %ref.tmp4) #18
  invoke void @_ZNSt7__cxx1112basic_stringIcSt11char_traitsIcESaIcEEC1EPKcRKS3_(ptr noundef nonnull align 8 dereferenceable(32) %ref.tmp, ptr noundef nonnull @.str.3, ptr noundef nonnull align 1 dereferenceable(1) %ref.tmp4)
          to label %invoke.cont unwind label %lpad

invoke.cont:                                      ; preds = %sw.epilog
  invoke void @_ZNSt7__cxx1118basic_stringstreamIcSt11char_traitsIcESaIcEEC1ERKNS_12basic_stringIcS2_S3_EESt13_Ios_Openmode(ptr noundef nonnull align 8 dereferenceable(128) %ss, ptr noundef nonnull align 8 dereferenceable(32) %ref.tmp, i32 noundef 24)
          to label %invoke.cont7 unwind label %lpad5

invoke.cont7:                                     ; preds = %invoke.cont
  call void @_ZNSt7__cxx1112basic_stringIcSt11char_traitsIcESaIcEED1Ev(ptr noundef nonnull align 8 dereferenceable(32) %ref.tmp) #18
  call void @_ZNSaIcED1Ev(ptr noundef nonnull align 1 dereferenceable(1) %ref.tmp4) #18
  %add.ptr = getelementptr inbounds i8, ptr %ss, i64 16
  %call10 = invoke noundef nonnull align 8 dereferenceable(8) ptr @_ZNSolsEi(ptr noundef nonnull align 8 dereferenceable(8) %add.ptr, i32 noundef %style)
          to label %invoke.cont9 unwind label %lpad8

invoke.cont9:                                     ; preds = %invoke.cont7
  %exception = call ptr @__cxa_allocate_exception(i64 16) #18
  invoke void @_ZNKSt7__cxx1118basic_stringstreamIcSt11char_traitsIcESaIcEE3strEv(ptr nonnull sret(%"class.std::__cxx11::basic_string") align 8 %ref.tmp11, ptr noundef nonnull align 8 dereferenceable(128) %ss)
          to label %invoke.cont13 unwind label %ehcleanup18.thread

invoke.cont13:                                    ; preds = %invoke.cont9
  %call14 = call noundef ptr @_ZNKSt7__cxx1112basic_stringIcSt11char_traitsIcESaIcEE5c_strEv(ptr noundef nonnull align 8 dereferenceable(32) %ref.tmp11) #18
  invoke void @_ZN19OpenColorIO_v2_4dev9ExceptionC1EPKc(ptr noundef nonnull align 8 dereferenceable(16) %exception, ptr noundef %call14)
          to label %invoke.cont16 unwind label %ehcleanup18.thread10

ehcleanup18.thread10:                             ; preds = %invoke.cont13
  %1 = landingpad { ptr, i32 }
          cleanup
  call void @_ZNSt7__cxx1112basic_stringIcSt11char_traitsIcESaIcEED1Ev(ptr noundef nonnull align 8 dereferenceable(32) %ref.tmp11) #18
  br label %cleanup.action

invoke.cont16:                                    ; preds = %invoke.cont13
  invoke void @__cxa_throw(ptr nonnull %exception, ptr nonnull @_ZTIN19OpenColorIO_v2_4dev9ExceptionE, ptr nonnull @_ZN19OpenColorIO_v2_4dev9ExceptionD1Ev) #19
          to label %unreachable unwind label %ehcleanup18

lpad:                                             ; preds = %sw.epilog
  %2 = landingpad { ptr, i32 }
          cleanup
  br label %ehcleanup

lpad5:                                            ; preds = %invoke.cont
  %3 = landingpad { ptr, i32 }
          cleanup
  call void @_ZNSt7__cxx1112basic_stringIcSt11char_traitsIcESaIcEED1Ev(ptr noundef nonnull align 8 dereferenceable(32) %ref.tmp) #18
  br label %ehcleanup

ehcleanup:                                        ; preds = %lpad5, %lpad
  %.pn = phi { ptr, i32 } [ %3, %lpad5 ], [ %2, %lpad ]
  call void @_ZNSaIcED1Ev(ptr noundef nonnull align 1 dereferenceable(1) %ref.tmp4) #18
  br label %eh.resume

lpad8:                                            ; preds = %invoke.cont7
  %4 = landingpad { ptr, i32 }
          cleanup
  br label %ehcleanup19

ehcleanup18.thread:                               ; preds = %invoke.cont9
  %5 = landingpad { ptr, i32 }
          cleanup
  br label %cleanup.action

ehcleanup18:                                      ; preds = %invoke.cont16
  %6 = landingpad { ptr, i32 }
          cleanup
  call void @_ZNSt7__cxx1112basic_stringIcSt11char_traitsIcESaIcEED1Ev(ptr noundef nonnull align 8 dereferenceable(32) %ref.tmp11) #18
  br label %ehcleanup19

cleanup.action:                                   ; preds = %ehcleanup18.thread10, %ehcleanup18.thread
  %.pn39 = phi { ptr, i32 } [ %5, %ehcleanup18.thread ], [ %1, %ehcleanup18.thread10 ]
  call void @__cxa_free_exception(ptr %exception) #18
  br label %ehcleanup19

ehcleanup19:                                      ; preds = %ehcleanup18, %cleanup.action, %lpad8
  %.pn3.pn = phi { ptr, i32 } [ %.pn39, %cleanup.action ], [ %6, %ehcleanup18 ], [ %4, %lpad8 ]
  call void @_ZNSt7__cxx1118basic_stringstreamIcSt11char_traitsIcESaIcEED1Ev(ptr noundef nonnull align 8 dereferenceable(128) %ss) #18
  br label %eh.resume

switch.lookup:                                    ; preds = %entry
  %7 = zext nneg i32 %style to i64
  %switch.gep = getelementptr inbounds [10 x i32], ptr @switch.table._ZN19OpenColorIO_v2_4dev11GammaOpData12ConvertStyleENS0_5StyleE, i64 0, i64 %7
  %switch.load = load i32, ptr %switch.gep, align 4
  ret i32 %switch.load

eh.resume:                                        ; preds = %ehcleanup19, %ehcleanup
  %.pn3.pn.pn = phi { ptr, i32 } [ %.pn3.pn, %ehcleanup19 ], [ %.pn, %ehcleanup ]
  resume { ptr, i32 } %.pn3.pn.pn

unreachable:                                      ; preds = %invoke.cont16
  unreachable
}